; Function Attrs: null_pointer_is_valid sspstrong uwtable
define hidden void @radius_ipaddr(ptr noundef readonly captures(none) %0, ptr noundef %1, ptr noundef readonly captures(none) %2, ptr noundef %3, i32 noundef %4, i32 noundef %5, ptr noundef %6) #0 {
  %.not = icmp eq i32 %5, 4
  br i1 %.not, label %9, label %8

8:                                                ; preds = %7
  tail call void (ptr, ptr, ...) @proto_item_append_text(ptr noundef %6, ptr noundef nonnull @.str.10)
  br label %16

9:                                                ; preds = %7
  %10 = getelementptr inbounds nuw i8, ptr %0, i64 52
  %11 = load i32, ptr %10, align 4
  %12 = tail call ptr @proto_tree_add_item(ptr noundef %1, i32 noundef %11, ptr noundef %3, i32 noundef %4, i32 noundef 4, i32 noundef 0)
  %13 = getelementptr inbounds nuw i8, ptr %2, i64 408
  %14 = load ptr, ptr %13, align 8
  %15 = tail call ptr @tvb_address_to_str(ptr noundef %14, ptr noundef %3, i32 noundef 2, i32 noundef %4)
  tail call void (ptr, ptr, ...) @proto_item_append_text(ptr noundef %6, ptr noundef nonnull @.str.8, ptr noundef %15)
  br label %16

16:                                               ; preds = %9, %8
  ret void
}